; ModuleID = '53/131.c'
source_filename = "53/131.c"
target datalayout = "e-m:e-p270:32:32-p271:32:32-p272:64:64-i64:64-f80:128-n8:16:32:64-S128"
target triple = "x86_64-pc-linux-gnu"

@.str = private unnamed_addr constant [3 x i8] c"%d\00", align 1
@.str.1 = private unnamed_addr constant [4 x i8] c"%d,\00", align 1
@.str.2 = private unnamed_addr constant [4 x i8] c"%d\0A\00", align 1

; Function Attrs: noinline nounwind uwtable
define dso_local i32 @main() #0 {
  %1 = alloca i32, align 4
  %2 = alloca i32, align 4
  %3 = alloca [100 x i32], align 16
  %4 = alloca [100 x i32], align 16
  %5 = alloca i32, align 4
  %6 = alloca i32, align 4
  %7 = alloca i32*, align 8
  %8 = alloca i32*, align 8
  %9 = alloca i32, align 4
  store i32 0, i32* %1, align 4
  %10 = call i32 (i8*, ...) @__isoc99_scanf(i8* getelementptr inbounds ([3 x i8], [3 x i8]* @.str, i64 0, i64 0), i32* %2)
  store i32 0, i32* %5, align 4
  br label %11

11:                                               ; preds = %21, %0
  %12 = load i32, i32* %5, align 4
  %13 = load i32, i32* %2, align 4
  %14 = sub nsw i32 %13, 1
  %15 = icmp sle i32 %12, %14
  br i1 %15, label %16, label %24

16:                                               ; preds = %11
  %17 = load i32, i32* %5, align 4
  %18 = sext i32 %17 to i64
  %19 = getelementptr inbounds [100 x i32], [100 x i32]* %3, i64 0, i64 %18
  %20 = call i32 (i8*, ...) @__isoc99_scanf(i8* getelementptr inbounds ([3 x i8], [3 x i8]* @.str, i64 0, i64 0), i32* %19)
  br label %21

21:                                               ; preds = %16
  %22 = load i32, i32* %5, align 4
  %23 = add nsw i32 %22, 1
  store i32 %23, i32* %5, align 4
  br label %11

24:                                               ; preds = %11
  %25 = getelementptr inbounds [100 x i32], [100 x i32]* %3, i64 0, i64 0
  store i32* %25, i32** %7, align 8
  store i32 0, i32* %5, align 4
  br label %26

26:                                               ; preds = %60, %24
  %27 = load i32, i32* %5, align 4
  %28 = load i32, i32* %2, align 4
  %29 = sub nsw i32 %28, 1
  %30 = icmp sle i32 %27, %29
  br i1 %30, label %31, label %63

31:                                               ; preds = %26
  %32 = load i32, i32* %5, align 4
  %33 = add nsw i32 %32, 1
  %34 = sext i32 %33 to i64
  %35 = getelementptr inbounds [100 x i32], [100 x i32]* %3, i64 0, i64 %34
  store i32* %35, i32** %8, align 8
  store i32 0, i32* %6, align 4
  br label %36

36:                                               ; preds = %54, %31
  %37 = load i32, i32* %6, align 4
  %38 = load i32, i32* %2, align 4
  %39 = sub nsw i32 %38, 2
  %40 = load i32, i32* %5, align 4
  %41 = sub nsw i32 %39, %40
  %42 = icmp sle i32 %37, %41
  br i1 %42, label %43, label %57

43:                                               ; preds = %36
  %44 = load i32*, i32** %8, align 8
  %45 = load i32, i32* %44, align 4
  %46 = load i32*, i32** %7, align 8
  %47 = load i32, i32* %46, align 4
  %48 = icmp eq i32 %45, %47
  br i1 %48, label %49, label %51

49:                                               ; preds = %43
  %50 = load i32*, i32** %8, align 8
  store i32 0, i32* %50, align 4
  br label %51

51:                                               ; preds = %49, %43
  %52 = load i32*, i32** %8, align 8
  %53 = getelementptr inbounds i32, i32* %52, i32 1
  store i32* %53, i32** %8, align 8
  br label %54

54:                                               ; preds = %51
  %55 = load i32, i32* %6, align 4
  %56 = add nsw i32 %55, 1
  store i32 %56, i32* %6, align 4
  br label %36

57:                                               ; preds = %36
  %58 = load i32*, i32** %7, align 8
  %59 = getelementptr inbounds i32, i32* %58, i32 1
  store i32* %59, i32** %7, align 8
  br label %60

60:                                               ; preds = %57
  %61 = load i32, i32* %5, align 4
  %62 = add nsw i32 %61, 1
  store i32 %62, i32* %5, align 4
  br label %26

63:                                               ; preds = %26
  %64 = getelementptr inbounds [100 x i32], [100 x i32]* %3, i64 0, i64 0
  store i32* %64, i32** %7, align 8
  %65 = getelementptr inbounds [100 x i32], [100 x i32]* %4, i64 0, i64 0
  store i32* %65, i32** %8, align 8
  store i32 0, i32* %9, align 4
  store i32 0, i32* %5, align 4
  br label %66

66:                                               ; preds = %86, %63
  %67 = load i32, i32* %5, align 4
  %68 = load i32, i32* %2, align 4
  %69 = sub nsw i32 %68, 1
  %70 = icmp sle i32 %67, %69
  br i1 %70, label %71, label %89

71:                                               ; preds = %66
  %72 = load i32*, i32** %7, align 8
  %73 = load i32, i32* %72, align 4
  %74 = icmp ne i32 %73, 0
  br i1 %74, label %75, label %83

75:                                               ; preds = %71
  %76 = load i32*, i32** %7, align 8
  %77 = load i32, i32* %76, align 4
  %78 = load i32*, i32** %8, align 8
  store i32 %77, i32* %78, align 4
  %79 = load i32*, i32** %8, align 8
  %80 = getelementptr inbounds i32, i32* %79, i32 1
  store i32* %80, i32** %8, align 8
  %81 = load i32, i32* %9, align 4
  %82 = add nsw i32 %81, 1
  store i32 %82, i32* %9, align 4
  br label %83

83:                                               ; preds = %75, %71
  %84 = load i32*, i32** %7, align 8
  %85 = getelementptr inbounds i32, i32* %84, i32 1
  store i32* %85, i32** %7, align 8
  br label %86

86:                                               ; preds = %83
  %87 = load i32, i32* %5, align 4
  %88 = add nsw i32 %87, 1
  store i32 %88, i32* %5, align 4
  br label %66

89:                                               ; preds = %66
  store i32 0, i32* %5, align 4
  br label %90

90:                                               ; preds = %101, %89
  %91 = load i32, i32* %5, align 4
  %92 = load i32, i32* %9, align 4
  %93 = sub nsw i32 %92, 2
  %94 = icmp sle i32 %91, %93
  br i1 %94, label %95, label %104

95:                                               ; preds = %90
  %96 = load i32, i32* %5, align 4
  %97 = sext i32 %96 to i64
  %98 = getelementptr inbounds [100 x i32], [100 x i32]* %4, i64 0, i64 %97
  %99 = load i32, i32* %98, align 4
  %100 = call i32 (i8*, ...) @printf(i8* getelementptr inbounds ([4 x i8], [4 x i8]* @.str.1, i64 0, i64 0), i32 %99)
  br label %101

101:                                              ; preds = %95
  %102 = load i32, i32* %5, align 4
  %103 = add nsw i32 %102, 1
  store i32 %103, i32* %5, align 4
  br label %90

104:                                              ; preds = %90
  %105 = load i32, i32* %5, align 4
  %106 = sext i32 %105 to i64
  %107 = getelementptr inbounds [100 x i32], [100 x i32]* %4, i64 0, i64 %106
  %108 = load i32, i32* %107, align 4
  %109 = call i32 (i8*, ...) @printf(i8* getelementptr inbounds ([4 x i8], [4 x i8]* @.str.2, i64 0, i64 0), i32 %108)
  ret i32 0
}

declare dso_local i32 @__isoc99_scanf(i8*, ...) #1

declare dso_local i32 @printf(i8*, ...) #1


!llvm.module.flags = !{!0}
!llvm.ident = !{!1}

!0 = !{i32 1, !"wchar_size", i32 4}
!1 = !{!"clang version 10.0.0-4ubuntu1 "}
